target datalayout = "e-m:e-p270:32:32-p271:32:32-p272:64:64-i64:64-i128:128-f80:128-n8:16:32:64-S128"
target triple = "x86_64-pc-linux-gnu"

%struct.ReplicationSlotCtlData = type { [1 x %struct.ReplicationSlot] }
%struct.ReplicationSlot = type { i8, i8, i32, i8, i8, i32, i32, %struct.ReplicationSlotPersistentData, %struct.LWLock, %struct.ConditionVariable, i32, i64, i64, i64, i64, i64 }
%struct.ReplicationSlotPersistentData = type { %struct.nameData, i32, i32, i32, i32, i64, i32, i64, i64, i8, %struct.nameData, i8, i8 }
%struct.nameData = type { [64 x i8] }
%struct.LWLock = type { i16, %struct.pg_atomic_uint32, %struct.proclist_head }
%struct.pg_atomic_uint32 = type { i32 }
%struct.proclist_head = type { i32, i32 }
%struct.ConditionVariable = type { i8, %struct.proclist_head }
%union.LWLockPadded = type { %struct.LWLock, [112 x i8] }

@ReplicationSlotCtl = dso_local global ptr null, align 8
@max_replication_slots = dso_local global i32 10, align 4
@MainLWLockArray = external global ptr, align 8

; Function Attrs: nounwind uwtable
define dso_local ptr @SearchNamedReplicationSlot(ptr noundef %0, i1 noundef zeroext %1) #0 {
  %3 = alloca ptr, align 8
  %4 = alloca i8, align 1
  %5 = alloca i32, align 4
  %6 = alloca ptr, align 8
  %7 = alloca ptr, align 8
  %8 = alloca i32, align 4
  store ptr %0, ptr %3, align 8
  %9 = zext i1 %1 to i8
  store i8 %9, ptr %4, align 1
  call void @llvm.lifetime.start.p0(i64 4, ptr %5) #12
  call void @llvm.lifetime.start.p0(i64 8, ptr %6) #12
  store ptr null, ptr %6, align 8
  %10 = load i8, ptr %4, align 1, !range !4, !noundef !5
  %11 = trunc i8 %10 to i1
  br i1 %11, label %12, label %16

12:                                               ; preds = %2
  %13 = load ptr, ptr @MainLWLockArray, align 8
  %14 = getelementptr inbounds %union.LWLockPadded, ptr %13, i64 37
  %15 = call zeroext i1 @LWLockAcquire(ptr noundef %14, i32 noundef 1)
  br label %16

16:                                               ; preds = %12, %2
  store i32 0, ptr %5, align 4
  br label %17

17:                                               ; preds = %46, %16
  %18 = load i32, ptr %5, align 4
  %19 = load i32, ptr @max_replication_slots, align 4
  %20 = icmp slt i32 %18, %19
  br i1 %20, label %21, label %49

21:                                               ; preds = %17
  call void @llvm.lifetime.start.p0(i64 8, ptr %7) #12
  %22 = load ptr, ptr @ReplicationSlotCtl, align 8
  %23 = getelementptr inbounds nuw %struct.ReplicationSlotCtlData, ptr %22, i32 0, i32 0
  %24 = load i32, ptr %5, align 4
  %25 = sext i32 %24 to i64
  %26 = getelementptr inbounds [1 x %struct.ReplicationSlot], ptr %23, i64 0, i64 %25
  store ptr %26, ptr %7, align 8
  %27 = load ptr, ptr %7, align 8
  %28 = getelementptr inbounds nuw %struct.ReplicationSlot, ptr %27, i32 0, i32 1
  %29 = load i8, ptr %28, align 1, !range !4, !noundef !5
  %30 = trunc i8 %29 to i1
  br i1 %30, label %31, label %42

31:                                               ; preds = %21
  %32 = load ptr, ptr %3, align 8
  %33 = load ptr, ptr %7, align 8
  %34 = getelementptr inbounds nuw %struct.ReplicationSlot, ptr %33, i32 0, i32 7
  %35 = getelementptr inbounds nuw %struct.ReplicationSlotPersistentData, ptr %34, i32 0, i32 0
  %36 = getelementptr inbounds nuw %struct.nameData, ptr %35, i32 0, i32 0
  %37 = getelementptr inbounds [64 x i8], ptr %36, i64 0, i64 0
  %38 = call i32 @strcmp(ptr noundef %32, ptr noundef %37) #13
  %39 = icmp eq i32 %38, 0
  br i1 %39, label %40, label %42

40:                                               ; preds = %31
  %41 = load ptr, ptr %7, align 8
  store ptr %41, ptr %6, align 8
  store i32 2, ptr %8, align 4
  br label %43

42:                                               ; preds = %31, %21
  store i32 0, ptr %8, align 4
  br label %43

43:                                               ; preds = %42, %40
  call void @llvm.lifetime.end.p0(i64 8, ptr %7) #12
  %44 = load i32, ptr %8, align 4
  switch i32 %44, label %57 [
    i32 0, label %45
    i32 2, label %49
  ]

45:                                               ; preds = %43
  br label %46

46:                                               ; preds = %45
  %47 = load i32, ptr %5, align 4
  %48 = add i32 %47, 1
  store i32 %48, ptr %5, align 4
  br label %17, !llvm.loop !14

49:                                               ; preds = %43, %17
  %50 = load i8, ptr %4, align 1, !range !4, !noundef !5
  %51 = trunc i8 %50 to i1
  br i1 %51, label %52, label %55

52:                                               ; preds = %49
  %53 = load ptr, ptr @MainLWLockArray, align 8
  %54 = getelementptr inbounds %union.LWLockPadded, ptr %53, i64 37
  call void @LWLockRelease(ptr noundef %54)
  br label %55

55:                                               ; preds = %52, %49
  %56 = load ptr, ptr %6, align 8
  store i32 1, ptr %8, align 4
  call void @llvm.lifetime.end.p0(i64 8, ptr %6) #12
  call void @llvm.lifetime.end.p0(i64 4, ptr %5) #12
  ret ptr %56

57:                                               ; preds = %43
  unreachable
}