; Function Attrs: nounwind uwtable
define dso_local ptr @SearchNamedReplicationSlot(ptr noundef readonly captures(none) %0, i1 noundef zeroext %1) local_unnamed_addr #0 {
  br i1 %1, label %3, label %7

3:                                                ; preds = %2
  %4 = load ptr, ptr @MainLWLockArray, align 8
  %5 = getelementptr inbounds nuw i8, ptr %4, i64 4736
  %6 = tail call zeroext i1 @LWLockAcquire(ptr noundef nonnull %5, i32 noundef 1) #17
  br label %7

7:                                                ; preds = %3, %2
  %8 = load i32, ptr @max_replication_slots, align 4
  %9 = icmp sgt i32 %8, 0
  br i1 %9, label %.lr.ph, label %._crit_edge

.lr.ph:                                           ; preds = %7
  %10 = load ptr, ptr @ReplicationSlotCtl, align 8
  %wide.trip.count = zext nneg i32 %8 to i64
  br label %11

11:                                               ; preds = %.lr.ph, %20
  %indvars.iv = phi i64 [ 0, %.lr.ph ], [ %indvars.iv.next, %20 ]
  %12 = getelementptr inbounds nuw [1 x %struct.ReplicationSlot], ptr %10, i64 0, i64 %indvars.iv
  %13 = getelementptr inbounds nuw i8, ptr %12, i64 1
  %14 = load i8, ptr %13, align 1, !range !4, !noundef !5
  %15 = trunc nuw i8 %14 to i1
  br i1 %15, label %16, label %20

16:                                               ; preds = %11
  %17 = getelementptr inbounds nuw i8, ptr %12, i64 24
  %18 = tail call i32 @strcmp(ptr noundef nonnull dereferenceable(1) %0, ptr noundef nonnull dereferenceable(1) %17) #18
  %19 = icmp eq i32 %18, 0
  br i1 %19, label %._crit_edge, label %20

20:                                               ; preds = %11, %16
  %indvars.iv.next = add nuw nsw i64 %indvars.iv, 1
  %exitcond.not = icmp eq i64 %indvars.iv.next, %wide.trip.count
  br i1 %exitcond.not, label %._crit_edge, label %11, !llvm.loop !13

._crit_edge:                                      ; preds = %20, %16, %7
  %.1 = phi ptr [ null, %7 ], [ %12, %16 ], [ null, %20 ]
  br i1 %1, label %21, label %24

21:                                               ; preds = %._crit_edge
  %22 = load ptr, ptr @MainLWLockArray, align 8
  %23 = getelementptr inbounds nuw i8, ptr %22, i64 4736
  tail call void @LWLockRelease(ptr noundef nonnull %23) #17
  br label %24

24:                                               ; preds = %21, %._crit_edge
  ret ptr %.1
}